target datalayout = "e-m:e-p270:32:32-p271:32:32-p272:64:64-i64:64-i128:128-f80:128-n8:16:32:64-S128"
target triple = "x86_64-pc-linux-gnu"

%struct._zend_refcounted_h = type { i32, %union.anon.3 }
%union.anon.3 = type { i32 }
%struct._zend_resource = type { %struct._zend_refcounted_h, i64, i32, ptr }

@.str.1 = private unnamed_addr constant [55 x i8] c"%s%s%s(): supplied resource is not a valid %s resource\00", align 1

; Function Attrs: nounwind uwtable
define ptr @zend_fetch_resource(ptr noundef %0, ptr noundef %1, i32 noundef %2) #0 {
  %4 = alloca ptr, align 8
  %5 = alloca ptr, align 8
  %6 = alloca ptr, align 8
  %7 = alloca i32, align 4
  %8 = alloca ptr, align 8
  %9 = alloca ptr, align 8
  store ptr %0, ptr %5, align 8
  store ptr %1, ptr %6, align 8
  store i32 %2, ptr %7, align 4
  %10 = load i32, ptr %7, align 4
  %11 = load ptr, ptr %5, align 8
  %12 = getelementptr inbounds %struct._zend_resource, ptr %11, i32 0, i32 2
  %13 = load i32, ptr %12, align 8
  %14 = icmp eq i32 %10, %13
  br i1 %14, label %15, label %19

15:                                               ; preds = %3
  %16 = load ptr, ptr %5, align 8
  %17 = getelementptr inbounds %struct._zend_resource, ptr %16, i32 0, i32 3
  %18 = load ptr, ptr %17, align 8
  store ptr %18, ptr %4, align 8
  br label %29

19:                                               ; preds = %3
  %20 = load ptr, ptr %6, align 8
  %21 = icmp ne ptr %20, null
  br i1 %21, label %22, label %28

22:                                               ; preds = %19
  %23 = call ptr @get_active_class_name(ptr noundef %8)
  store ptr %23, ptr %9, align 8
  %24 = load ptr, ptr %9, align 8
  %25 = load ptr, ptr %8, align 8
  %26 = call ptr @get_active_function_name()
  %27 = load ptr, ptr %6, align 8
  call void (ptr, ...) @zend_type_error(ptr noundef @.str.1, ptr noundef %24, ptr noundef %25, ptr noundef %26, ptr noundef %27)
  br label %28

28:                                               ; preds = %22, %19
  store ptr null, ptr %4, align 8
  br label %29

29:                                               ; preds = %28, %15
  %30 = load ptr, ptr %4, align 8
  ret ptr %30
}