; Function Attrs: nounwind uwtable
define ptr @zend_fetch_resource(ptr nocapture noundef readonly %0, ptr noundef %1, i32 noundef %2) local_unnamed_addr #0 {
  %4 = alloca ptr, align 8
  %5 = getelementptr inbounds i8, ptr %0, i64 16
  %6 = load i32, ptr %5, align 8
  %7 = icmp eq i32 %6, %2
  br i1 %7, label %8, label %11

8:                                                ; preds = %3
  %9 = getelementptr inbounds i8, ptr %0, i64 24
  %10 = load ptr, ptr %9, align 8
  br label %16

11:                                               ; preds = %3
  %.not = icmp eq ptr %1, null
  br i1 %.not, label %16, label %12

12:                                               ; preds = %11
  %13 = call ptr @get_active_class_name(ptr noundef nonnull %4) #14
  %14 = load ptr, ptr %4, align 8
  %15 = call ptr @get_active_function_name() #14
  call void (ptr, ...) @zend_type_error(ptr noundef nonnull @.str.1, ptr noundef %13, ptr noundef %14, ptr noundef %15, ptr noundef nonnull %1) #14
  br label %16

16:                                               ; preds = %11, %12, %8
  %.0 = phi ptr [ %10, %8 ], [ null, %12 ], [ null, %11 ]
  ret ptr %.0
}